; Function Attrs: nounwind uwtable
define dso_local range(i64 0, 2) i64 @has_column_privilege_id_name_name(ptr noundef captures(none) %0) local_unnamed_addr #0 {
  %2 = alloca i8, align 1
  %3 = getelementptr inbounds nuw i8, ptr %0, i64 32
  %4 = load i64, ptr %3, align 8
  %5 = trunc i64 %4 to i32
  %6 = getelementptr inbounds nuw i8, ptr %0, i64 48
  %7 = load i64, ptr %6, align 8
  %8 = inttoptr i64 %7 to ptr
  %9 = tail call ptr @pg_detoast_datum_packed(ptr noundef %8) #14
  %10 = getelementptr inbounds nuw i8, ptr %0, i64 64
  %11 = load i64, ptr %10, align 8
  %12 = inttoptr i64 %11 to ptr
  %13 = tail call ptr @pg_detoast_datum_packed(ptr noundef %12) #14
  %14 = getelementptr inbounds nuw i8, ptr %0, i64 80
  %15 = load i64, ptr %14, align 8
  %16 = inttoptr i64 %15 to ptr
  %17 = tail call ptr @pg_detoast_datum_packed(ptr noundef %16) #14
  %18 = tail call ptr @textToQualifiedNameList(ptr noundef %9) #14
  %19 = tail call ptr @makeRangeVarFromNameList(ptr noundef %18) #14
  %20 = tail call i32 @RangeVarGetRelidExtended(ptr noundef %19, i32 noundef 0, i32 noundef 0, ptr noundef null, ptr noundef null) #14
  %21 = tail call fastcc signext i16 @convert_column_name(i32 noundef %20, ptr noundef %13)
  %22 = tail call fastcc i64 @convert_any_priv_string(ptr noundef %17, ptr noundef nonnull @convert_column_priv_string.column_priv_map)
  call void @llvm.lifetime.start.p0(i64 1, ptr nonnull %2) #14
  store i8 0, ptr %2, align 1
  %23 = icmp eq i16 %21, 0
  br i1 %23, label %column_privilege_check.exit.thread, label %24

24:                                               ; preds = %1
  %25 = call i32 @pg_attribute_aclcheck_ext(i32 noundef %20, i16 noundef signext %21, i32 noundef %5, i64 noundef %22, ptr noundef nonnull %2) #14
  %26 = icmp eq i32 %25, 0
  br i1 %26, label %column_privilege_check.exit.thread18, label %27

27:                                               ; preds = %24
  %28 = load i8, ptr %2, align 1, !range !27, !noundef !28
  %29 = trunc nuw i8 %28 to i1
  br i1 %29, label %column_privilege_check.exit.thread, label %30

30:                                               ; preds = %27
  %31 = call i32 @pg_class_aclcheck_ext(i32 noundef %20, i32 noundef %5, i64 noundef %22, ptr noundef nonnull %2) #14
  %32 = icmp eq i32 %31, 0
  br i1 %32, label %column_privilege_check.exit.thread18, label %column_privilege_check.exit

column_privilege_check.exit.thread:               ; preds = %1, %27
  call void @llvm.lifetime.end.p0(i64 1, ptr nonnull %2) #14
  br label %34

column_privilege_check.exit.thread18:             ; preds = %24, %30
  call void @llvm.lifetime.end.p0(i64 1, ptr nonnull %2) #14
  br label %36

column_privilege_check.exit:                      ; preds = %30
  %33 = load i8, ptr %2, align 1, !range !27, !noundef !28
  call void @llvm.lifetime.end.p0(i64 1, ptr nonnull %2) #14
  %.not = icmp eq i8 %33, 0
  br i1 %.not, label %36, label %34

34:                                               ; preds = %column_privilege_check.exit.thread, %column_privilege_check.exit
  %35 = getelementptr inbounds nuw i8, ptr %0, i64 28
  store i8 1, ptr %35, align 4
  br label %36

36:                                               ; preds = %column_privilege_check.exit, %column_privilege_check.exit.thread18, %34
  %.0 = phi i64 [ 0, %34 ], [ 1, %column_privilege_check.exit.thread18 ], [ 0, %column_privilege_check.exit ]
  ret i64 %.0
}